; Function Attrs: mustprogress nofree norecurse nosync nounwind willreturn memory(argmem: read) uwtable
define noundef double @_ZNK8QuantLib31CappedFlooredYoYInflationCoupon12effectiveCapEv(ptr nocapture noundef nonnull readonly align 8 dereferenceable(232) %this) local_unnamed_addr #13 align 2 {
entry:
  %cap_ = getelementptr inbounds nuw i8, ptr %this, i64 216
  %0 = load double, ptr %cap_, align 8, !tbaa !65
  %spread_.i = getelementptr inbounds nuw i8, ptr %this, i64 184
  %1 = load double, ptr %spread_.i, align 8, !tbaa !71
  %sub = fsub double %0, %1
  %gearing_.i = getelementptr inbounds nuw i8, ptr %this, i64 176
  %2 = load double, ptr %gearing_.i, align 8, !tbaa !64
  %div = fdiv double %sub, %2
  ret double %div
}